; Function Attrs: mustprogress uwtable
define hidden void @_ZNK16bound_propagator19display_constraintsERSo(ptr noundef nonnull align 8 dereferenceable(280) %this, ptr noundef nonnull align 8 dereferenceable(8) %out) local_unnamed_addr #3 align 2 {
entry:
  %m_constraints = getelementptr inbounds i8, ptr %this, i64 80
  %0 = load ptr, ptr %m_constraints, align 8
  %cmp.i.i = icmp eq ptr %0, null
  br i1 %cmp.i.i, label %for.end, label %_ZNK6vectorIN16bound_propagator10constraintELb0EjE3endEv.exit

_ZNK6vectorIN16bound_propagator10constraintELb0EjE3endEv.exit: ; preds = %entry
  %arrayidx.i.i = getelementptr inbounds i8, ptr %0, i64 -4
  %1 = load i32, ptr %arrayidx.i.i, align 4
  %2 = zext i32 %1 to i64
  %add.ptr.i = getelementptr inbounds %"class.bound_propagator::constraint", ptr %0, i64 %2
  %cmp.not6 = icmp eq i32 %1, 0
  br i1 %cmp.not6, label %for.end, label %for.body.lr.ph

for.body.lr.ph:                                   ; preds = %_ZNK6vectorIN16bound_propagator10constraintELb0EjE3endEv.exit
  %m_eq_manager = getelementptr inbounds i8, ptr %this, i64 16
  br label %for.body

for.body:                                         ; preds = %for.body.lr.ph, %for.inc
  %__begin1.07 = phi ptr [ %0, %for.body.lr.ph ], [ %incdec.ptr, %for.inc ]
  %bf.load = load i8, ptr %__begin1.07, align 8
  %bf.clear = and i8 %bf.load, 3
  %cmp3 = icmp eq i8 %bf.clear, 0
  br i1 %cmp3, label %if.then, label %for.inc

if.then:                                          ; preds = %for.body
  %3 = getelementptr inbounds i8, ptr %__begin1.07, i64 16
  %4 = load ptr, ptr %3, align 8
  tail call void @_ZNK23linear_equation_manager7displayERSoRK15linear_equation(ptr noundef nonnull align 8 dereferenceable(64) %m_eq_manager, ptr noundef nonnull align 8 dereferenceable(8) %out, ptr noundef nonnull align 8 dereferenceable(32) %4)
  %call4 = tail call noundef nonnull align 8 dereferenceable(8) ptr @_ZStlsISt11char_traitsIcEERSt13basic_ostreamIcT_ES5_PKc(ptr noundef nonnull align 8 dereferenceable(8) %out, ptr noundef nonnull @.str.11)
  br label %for.inc

for.inc:                                          ; preds = %for.body, %if.then
  %incdec.ptr = getelementptr inbounds i8, ptr %__begin1.07, i64 24
  %cmp.not = icmp eq ptr %incdec.ptr, %add.ptr.i
  br i1 %cmp.not, label %for.end, label %for.body

for.end:                                          ; preds = %for.inc, %entry, %_ZNK6vectorIN16bound_propagator10constraintELb0EjE3endEv.exit
  ret void
}